(dp0
(I1
I0
tp1
(dp2
(S'selective MS control charts'
p3
cnumpy.core.multiarray
scalar
p4
(cnumpy
dtype
p5
(S'f8'
p6
I0
I1
tp7
Rp8
(I3
S'<'
p9
NNNI-1
I-1
I0
tp10
bS'\x9a\x99\x99\x99\x99\x99\xd9?'
p11
tp12
Rp13
g4
(g8
S'\x00\x00\x00\x00\x00\x00\xf0?'
p14
tp15
Rp16
tp17
(dp18
S'TNR'
p19
F0.7049180327868853
sS'FNR'
p20
F0.06521739130434782
sS'TPR'
p21
F0.4
sS'Precision'
p22
F0.1
sS'FPR'
p23
F0.9
ss(S'naive MS control charts'
p24
g4
(g8
S'\x9a\x99\x99\x99\x99\x99\xe9?'
p25
tp26
Rp27
g4
(g8
S'\x00\x00\x00\x00\x00\x00\x04@'
p28
tp29
Rp30
tp31
(dp32
g19
F1.0
sg20
F0.07575757575757576
sg21
F0.0
sg22
I0
sg23
I0
ss(g3
g4
(g8
S'\x9a\x99\x99\x99\x99\x99\xc9?'
p33
tp34
Rp35
g4
(g8
S'\x00\x00\x00\x00\x00\x00\x10@'
p36
tp37
Rp38
tp39
(dp40
g19
F0.9508196721311475
sg20
F0.07936507936507936
sg21
F0.0
sg22
F0.0
sg23
F1.0
ss(g24
g4
(g8
S'433333\xe3?'
p41
tp42
Rp43
g4
(g8
S'\x00\x00\x00\x00\x00\x00\xf0?'
p44
tp45
Rp46
tp47
(dp48
g19
F0.3114754098360656
sg20
F0.09523809523809523
sg21
F0.6
sg22
F0.06666666666666667
sg23
F0.9333333333333333
ss(g3
g4
(g8
S'\x9a\x99\x99\x99\x99\x99\xc9?'
p49
tp50
Rp51
g4
(g8
S'\x00\x00\x00\x00\x00\x00\x0c@'
p52
tp53
Rp54
tp55
(dp56
g19
F0.9016393442622951
sg20
F0.08333333333333333
sg21
F0.0
sg22
F0.0
sg23
F1.0
ss(S'naive 3-tier control charts'
p57
g4
(g8
S'433333\xe3?'
p58
tp59
Rp60
g4
(g8
S'\x00\x00\x00\x00\x00\x00\xf8?'
p61
tp62
Rp63
tp64
(dp65
g19
F0.9508196721311475
sg20
F0.07936507936507936
sg21
F0.0
sg22
F0.0
sg23
F1.0
ss(g24
g4
(g8
S'433333\xe3?'
p66
tp67
Rp68
g30
tp69
(dp70
g19
F0.9836065573770492
sg20
F0.07692307692307693
sg21
F0.0
sg22
F0.0
sg23
F1.0
ss(g24
g4
(g8
S'\x9a\x99\x99\x99\x99\x99\xe9?'
p71
tp72
Rp73
g4
(g8
S'\x00\x00\x00\x00\x00\x00\x10@'
p74
tp75
Rp76
tp77
(dp78
g19
F1.0
sg20
F0.07575757575757576
sg21
F0.0
sg22
I0
sg23
I0
ss(g3
g4
(g8
S'\x9a\x99\x99\x99\x99\x99\xc9?'
p79
tp80
Rp81
g4
(g8
S'\x00\x00\x00\x00\x00\x00\xf8?'
p82
tp83
Rp84
tp85
(dp86
g19
F0.6557377049180327
sg20
F0.06976744186046512
sg21
F0.4
sg22
F0.08695652173913043
sg23
F0.9130434782608695
ss(g24
g4
(g8
S'\x9a\x99\x99\x99\x99\x99\xd9?'
p87
tp88
Rp89
g4
(g8
S'\x00\x00\x00\x00\x00\x00\x00@'
p90
tp91
Rp92
tp93
(dp94
g19
F0.4262295081967213
sg20
F0.07142857142857142
sg21
F0.6
sg22
F0.07894736842105263
sg23
F0.9210526315789473
ss(g57
g4
(g8
S'\x9a\x99\x99\x99\x99\x99\xe9?'
p95
tp96
Rp97
g4
(g8
S'\x00\x00\x00\x00\x00\x00\xf0?'
p98
tp99
Rp100
tp101
(dp102
g19
F1.0
sg20
F0.07575757575757576
sg21
F0.0
sg22
I0
sg23
I0
ss(g57
g4
(g8
S'\x9a\x99\x99\x99\x99\x99\xc9?'
p103
tp104
Rp105
g100
tp106
(dp107
g19
F0.0
sg20
I0
sg21
F1.0
sg22
F0.07575757575757576
sg23
F0.9242424242424242
ss(g57
g4
(g8
S'\x9a\x99\x99\x99\x99\x99\xc9?'
p108
tp109
Rp110
g4
(g8
S'\x00\x00\x00\x00\x00\x00\x0c@'
p111
tp112
Rp113
tp114
(dp115
g19
F0.7704918032786885
sg20
F0.0784313725490196
sg21
F0.2
sg22
F0.06666666666666667
sg23
F0.9333333333333333
ss(g24
g4
(g8
S'\x9a\x99\x99\x99\x99\x99\xc9?'
p116
tp117
Rp118
g76
tp119
(dp120
g19
F0.4918032786885246
sg20
F0.0625
sg21
F0.6
sg22
F0.08823529411764706
sg23
F0.9117647058823529
ss(g3
g4
(g8
S'\x9a\x99\x99\x99\x99\x99\xd9?'
p121
tp122
Rp123
g4
(g8
S'\x00\x00\x00\x00\x00\x00\x04@'
p124
tp125
Rp126
tp127
(dp128
g19
F0.9508196721311475
sg20
F0.07936507936507936
sg21
F0.0
sg22
F0.0
sg23
F1.0
ss(g24
g4
(g8
S'\x9a\x99\x99\x99\x99\x99\xc9?'
p129
tp130
Rp131
g4
(g8
S'\x00\x00\x00\x00\x00\x00\x08@'
p132
tp133
Rp134
tp135
(dp136
g19
F0.18032786885245902
sg20
F0.08333333333333333
sg21
F0.8
sg22
F0.07407407407407407
sg23
F0.9259259259259259
ss(g3
g4
(g8
S'433333\xe3?'
p137
tp138
Rp139
g54
tp140
(dp141
g19
F1.0
sg20
F0.07575757575757576
sg21
F0.0
sg22
I0
sg23
I0
ss(g24
g4
(g8
S'\x9a\x99\x99\x99\x99\x99\xe9?'
p142
tp143
Rp144
g92
tp145
(dp146
g19
F1.0
sg20
F0.07575757575757576
sg21
F0.0
sg22
I0
sg23
I0
ss(g3
g4
(g8
S'433333\xe3?'
p147
tp148
Rp149
g16
tp150
(dp151
g19
F0.8852459016393442
sg20
F0.0847457627118644
sg21
F0.0
sg22
F0.0
sg23
F1.0
ss(g24
g4
(g8
S'\x9a\x99\x99\x99\x99\x99\xd9?'
p152
tp153
Rp154
g46
tp155
(dp156
g19
F0.0
sg20
I0
sg21
F1.0
sg22
F0.07575757575757576
sg23
F0.9242424242424242
ss(g24
g4
(g8
S'\x9a\x99\x99\x99\x99\x99\xd9?'
p157
tp158
Rp159
g134
tp160
(dp161
g19
F0.7049180327868853
sg20
F0.0851063829787234
sg21
F0.2
sg22
F0.05263157894736842
sg23
F0.9473684210526315
ss(g24
g4
(g8
S'\x9a\x99\x99\x99\x99\x99\xc9?'
p162
tp163
Rp164
g30
tp165
(dp166
g19
F0.0
sg20
I0
sg21
F1.0
sg22
F0.07575757575757576
sg23
F0.9242424242424242
ss(g3
g4
(g8
S'433333\xe3?'
p167
tp168
Rp169
g4
(g8
S'\x00\x00\x00\x00\x00\x00\x00@'
p170
tp171
Rp172
tp173
(dp174
g19
F0.9836065573770492
sg20
F0.07692307692307693
sg21
F0.0
sg22
F0.0
sg23
F1.0
ss(g3
g4
(g8
S'\x9a\x99\x99\x99\x99\x99\xe9?'
p175
tp176
Rp177
g38
tp178
(dp179
g19
F1.0
sg20
F0.07575757575757576
sg21
F0.0
sg22
I0
sg23
I0
ss(g24
g4
(g8
S'\x9a\x99\x99\x99\x99\x99\xe9?'
p180
tp181
Rp182
g4
(g8
S'\x00\x00\x00\x00\x00\x00\x0c@'
p183
tp184
Rp185
tp186
(dp187
g19
F1.0
sg20
F0.07575757575757576
sg21
F0.0
sg22
I0
sg23
I0
ss(g3
g4
(g8
S'\x9a\x99\x99\x99\x99\x99\xd9?'
p188
tp189
Rp190
g172
tp191
(dp192
g19
F0.9344262295081968
sg20
F0.08064516129032258
sg21
F0.0
sg22
F0.0
sg23
F1.0
ss(g57
g4
(g8
S'\x9a\x99\x99\x99\x99\x99\xc9?'
p193
tp194
Rp195
g4
(g8
S'\x00\x00\x00\x00\x00\x00\x08@'
p196
tp197
Rp198
tp199
(dp200
g19
F0.7049180327868853
sg20
F0.0851063829787234
sg21
F0.2
sg22
F0.05263157894736842
sg23
F0.9473684210526315
ss(g3
g4
(g8
S'433333\xe3?'
p201
tp202
Rp203
g4
(g8
S'\x00\x00\x00\x00\x00\x00\x08@'
p204
tp205
Rp206
tp207
(dp208
g19
F1.0
sg20
F0.07575757575757576
sg21
F0.0
sg22
I0
sg23
I0
ss(g57
g4
(g8
S'\x9a\x99\x99\x99\x99\x99\xd9?'
p209
tp210
Rp211
g63
tp212
(dp213
g19
F0.16393442622950818
sg20
F0.0
sg21
F1.0
sg22
F0.08928571428571429
sg23
F0.9107142857142857
ss(g3
g4
(g8
S'\x9a\x99\x99\x99\x99\x99\xe9?'
p214
tp215
Rp216
g126
tp217
(dp218
g19
F1.0
sg20
F0.07575757575757576
sg21
F0.0
sg22
I0
sg23
I0
ss(g57
g4
(g8
S'\x9a\x99\x99\x99\x99\x99\xe9?'
p219
tp220
Rp221
g4
(g8
S'\x00\x00\x00\x00\x00\x00\x00@'
p222
tp223
Rp224
tp225
(dp226
g19
F1.0
sg20
F0.07575757575757576
sg21
F0.0
sg22
I0
sg23
I0
ss(g3
g4
(g8
S'433333\xe3?'
p227
tp228
Rp229
g38
tp230
(dp231
g19
F1.0
sg20
F0.07575757575757576
sg21
F0.0
sg22
I0
sg23
I0
ss(g24
g4
(g8
S'\x9a\x99\x99\x99\x99\x99\xc9?'
p232
tp233
Rp234
g185
tp235
(dp236
g19
F0.3442622950819672
sg20
F0.08695652173913043
sg21
F0.6
sg22
F0.06976744186046512
sg23
F0.9302325581395349
ss(g24
g4
(g8
S'\x9a\x99\x99\x99\x99\x99\xd9?'
p237
tp238
Rp239
g4
(g8
S'\x00\x00\x00\x00\x00\x00\xf8?'
p240
tp241
Rp242
tp243
(dp244
g19
F0.01639344262295082
sg20
F0.0
sg21
F1.0
sg22
F0.07692307692307693
sg23
F0.9230769230769231
ss(g57
g4
(g8
S'\x9a\x99\x99\x99\x99\x99\xd9?'
p245
tp246
Rp247
g100
tp248
(dp249
g19
F0.0
sg20
I0
sg21
F1.0
sg22
F0.07575757575757576
sg23
F0.9242424242424242
ss(g3
g4
(g8
S'433333\xe3?'
p250
tp251
Rp252
g4
(g8
S'\x00\x00\x00\x00\x00\x00\xe0?'
p253
tp254
Rp255
tp256
(dp257
g19
F0.6885245901639344
sg20
F0.06666666666666667
sg21
F0.4
sg22
F0.09523809523809523
sg23
F0.9047619047619048
ss(g24
g4
(g8
S'433333\xe3?'
p258
tp259
Rp260
g242
tp261
(dp262
g19
F0.6065573770491803
sg20
F0.0975609756097561
sg21
F0.2
sg22
F0.04
sg23
F0.96
ss(g3
g4
(g8
S'433333\xe3?'
p263
tp264
Rp265
g84
tp266
(dp267
g19
F0.9672131147540983
sg20
F0.078125
sg21
F0.0
sg22
F0.0
sg23
F1.0
ss(g24
g4
(g8
S'\x9a\x99\x99\x99\x99\x99\xd9?'
p268
tp269
Rp270
g76
tp271
(dp272
g19
F0.9016393442622951
sg20
F0.08333333333333333
sg21
F0.0
sg22
F0.0
sg23
F1.0
ss(g57
g4
(g8
S'\x9a\x99\x99\x99\x99\x99\xe9?'
p273
tp274
Rp275
g4
(g8
S'\x00\x00\x00\x00\x00\x00\xe0?'
p276
tp277
Rp278
tp279
(dp280
g19
F0.819672131147541
sg20
F0.07407407407407407
sg21
F0.2
sg22
F0.08333333333333333
sg23
F0.9166666666666666
ss(g24
g4
(g8
S'\x9a\x99\x99\x99\x99\x99\xc9?'
p281
tp282
Rp283
g242
tp284
(dp285
g19
F0.0
sg20
I0
sg21
F1.0
sg22
F0.07575757575757576
sg23
F0.9242424242424242
ss(g57
g4
(g8
S'433333\xe3?'
p286
tp287
Rp288
g278
tp289
(dp290
g19
F0.0
sg20
I0
sg21
F1.0
sg22
F0.07575757575757576
sg23
F0.9242424242424242
ss(g57
g4
(g8
S'433333\xe3?'
p291
tp292
Rp293
g224
tp294
(dp295
g19
F1.0
sg20
F0.07575757575757576
sg21
F0.0
sg22
I0
sg23
I0
ss(g24
g4
(g8
S'\x9a\x99\x99\x99\x99\x99\xc9?'
p296
tp297
Rp298
g92
tp299
(dp300
g19
F0.0
sg20
I0
sg21
F1.0
sg22
F0.07575757575757576
sg23
F0.9242424242424242
ss(g24
g4
(g8
S'433333\xe3?'
p301
tp302
Rp303
g4
(g8
S'\x00\x00\x00\x00\x00\x00\xe0?'
p304
tp305
Rp306
tp307
(dp308
g19
F0.0
sg20
I0
sg21
F1.0
sg22
F0.07575757575757576
sg23
F0.9242424242424242
ss(g3
g4
(g8
S'\x9a\x99\x99\x99\x99\x99\xe9?'
p309
tp310
Rp311
g84
tp312
(dp313
g19
F1.0
sg20
F0.07575757575757576
sg21
F0.0
sg22
I0
sg23
I0
ss(g57
g4
(g8
S'\x9a\x99\x99\x99\x99\x99\xe9?'
p314
tp315
Rp316
g63
tp317
(dp318
g19
F1.0
sg20
F0.07575757575757576
sg21
F0.0
sg22
I0
sg23
I0
ss(g3
g4
(g8
S'\x9a\x99\x99\x99\x99\x99\xd9?'
p319
tp320
Rp321
g206
tp322
(dp323
g19
F0.9836065573770492
sg20
F0.07692307692307693
sg21
F0.0
sg22
F0.0
sg23
F1.0
ss(g24
g4
(g8
S'433333\xe3?'
p324
tp325
Rp326
g134
tp327
(dp328
g19
F1.0
sg20
F0.07575757575757576
sg21
F0.0
sg22
I0
sg23
I0
ss(g57
g4
(g8
S'\x9a\x99\x99\x99\x99\x99\xe9?'
p329
tp330
Rp331
g4
(g8
S'\x00\x00\x00\x00\x00\x00\x10@'
p332
tp333
Rp334
tp335
(dp336
g19
F1.0
sg20
F0.07575757575757576
sg21
F0.0
sg22
I0
sg23
I0
ss(g3
g4
(g8
S'\x9a\x99\x99\x99\x99\x99\xd9?'
p337
tp338
Rp339
g84
tp340
(dp341
g19
F0.8032786885245902
sg20
F0.057692307692307696
sg21
F0.4
sg22
F0.14285714285714285
sg23
F0.8571428571428571
ss(g24
g4
(g8
S'433333\xe3?'
p342
tp343
Rp344
g92
tp345
(dp346
g19
F0.8688524590163934
sg20
F0.08620689655172414
sg21
F0.0
sg22
F0.0
sg23
F1.0
ss(g24
g4
(g8
S'\x9a\x99\x99\x99\x99\x99\xd9?'
p347
tp348
Rp349
g306
tp350
(dp351
g19
F0.0
sg20
I0
sg21
F1.0
sg22
F0.07575757575757576
sg23
F0.9242424242424242
ss(g24
g4
(g8
S'\x9a\x99\x99\x99\x99\x99\xc9?'
p352
tp353
Rp354
g306
tp355
(dp356
g19
F0.0
sg20
I0
sg21
F1.0
sg22
F0.07575757575757576
sg23
F0.9242424242424242
ss(g57
g4
(g8
S'\x9a\x99\x99\x99\x99\x99\xc9?'
p357
tp358
Rp359
g4
(g8
S'\x00\x00\x00\x00\x00\x00\x04@'
p360
tp361
Rp362
tp363
(dp364
g19
F0.01639344262295082
sg20
F0.0
sg21
F1.0
sg22
F0.07692307692307693
sg23
F0.9230769230769231
ss(g24
g4
(g8
S'\x9a\x99\x99\x99\x99\x99\xe9?'
p365
tp366
Rp367
g134
tp368
(dp369
g19
F1.0
sg20
F0.07575757575757576
sg21
F0.0
sg22
I0
sg23
I0
ss(g24
g4
(g8
S'433333\xe3?'
p370
tp371
Rp372
g76
tp373
(dp374
g19
F1.0
sg20
F0.07575757575757576
sg21
F0.0
sg22
I0
sg23
I0
ss(g57
g4
(g8
S'\x9a\x99\x99\x99\x99\x99\xd9?'
p375
tp376
Rp377
g224
tp378
(dp379
g19
F0.7868852459016393
sg20
F0.07692307692307693
sg21
F0.2
sg22
F0.07142857142857142
sg23
F0.9285714285714286
ss(g3
g4
(g8
S'\x9a\x99\x99\x99\x99\x99\xe9?'
p380
tp381
Rp382
g255
tp383
(dp384
g19
F0.9016393442622951
sg20
F0.08333333333333333
sg21
F0.0
sg22
F0.0
sg23
F1.0
ss(g24
g4
(g8
S'\x9a\x99\x99\x99\x99\x99\xe9?'
p385
tp386
Rp387
g46
tp388
(dp389
g19
F0.9344262295081968
sg20
F0.08064516129032258
sg21
F0.0
sg22
F0.0
sg23
F1.0
ss(g3
g4
(g8
S'\x9a\x99\x99\x99\x99\x99\xd9?'
p390
tp391
Rp392
g54
tp393
(dp394
g19
F0.9836065573770492
sg20
F0.07692307692307693
sg21
F0.0
sg22
F0.0
sg23
F1.0
ss(g3
g4
(g8
S'\x9a\x99\x99\x99\x99\x99\xc9?'
p395
tp396
Rp397
g126
tp398
(dp399
g19
F0.8360655737704918
sg20
F0.05555555555555555
sg21
F0.4
sg22
F0.16666666666666666
sg23
F0.8333333333333334
ss(g57
g4
(g8
S'\x9a\x99\x99\x99\x99\x99\xd9?'
p400
tp401
Rp402
g334
tp403
(dp404
g19
F1.0
sg20
F0.07575757575757576
sg21
F0.0
sg22
I0
sg23
I0
ss(g24
g4
(g8
S'\x9a\x99\x99\x99\x99\x99\xe9?'
p405
tp406
Rp407
g242
tp408
(dp409
g19
F1.0
sg20
F0.07575757575757576
sg21
F0.0
sg22
I0
sg23
I0
ss(g57
g4
(g8
S'\x9a\x99\x99\x99\x99\x99\xd9?'
p410
tp411
Rp412
g362
tp413
(dp414
g19
F0.9508196721311475
sg20
F0.07936507936507936
sg21
F0.0
sg22
F0.0
sg23
F1.0
ss(g57
g4
(g8
S'\x9a\x99\x99\x99\x99\x99\xe9?'
p415
tp416
Rp417
g113
tp418
(dp419
g19
F1.0
sg20
F0.07575757575757576
sg21
F0.0
sg22
I0
sg23
I0
ss(g57
g4
(g8
S'\x9a\x99\x99\x99\x99\x99\xc9?'
p420
tp421
Rp422
g334
tp423
(dp424
g19
F0.8524590163934426
sg20
F0.07142857142857142
sg21
F0.2
sg22
F0.1
sg23
F0.9
ss(g3
g4
(g8
S'\x9a\x99\x99\x99\x99\x99\xc9?'
p425
tp426
Rp427
g172
tp428
(dp429
g19
F0.7377049180327869
sg20
F0.0625
sg21
F0.4
sg22
F0.1111111111111111
sg23
F0.8888888888888888
ss(g24
g4
(g8
S'\x9a\x99\x99\x99\x99\x99\xd9?'
p430
tp431
Rp432
g185
tp433
(dp434
g19
F0.8688524590163934
sg20
F0.08620689655172414
sg21
F0.0
sg22
F0.0
sg23
F1.0
ss(g57
g4
(g8
S'433333\xe3?'
p435
tp436
Rp437
g113
tp438
(dp439
g19
F1.0
sg20
F0.07575757575757576
sg21
F0.0
sg22
I0
sg23
I0
ss(g57
g4
(g8
S'\x9a\x99\x99\x99\x99\x99\xd9?'
p440
tp441
Rp442
g113
tp443
(dp444
g19
F1.0
sg20
F0.07575757575757576
sg21
F0.0
sg22
I0
sg23
I0
ss(g24
g4
(g8
S'\x9a\x99\x99\x99\x99\x99\xc9?'
p445
tp446
Rp447
g46
tp448
(dp449
g19
F0.0
sg20
I0
sg21
F1.0
sg22
F0.07575757575757576
sg23
F0.9242424242424242
ss(g57
g4
(g8
S'\x9a\x99\x99\x99\x99\x99\xc9?'
p450
tp451
Rp452
g63
tp453
(dp454
g19
F0.0
sg20
I0
sg21
F1.0
sg22
F0.07575757575757576
sg23
F0.9242424242424242
ss(g57
g4
(g8
S'\x9a\x99\x99\x99\x99\x99\xd9?'
p455
tp456
Rp457
g278
tp458
(dp459
g19
F0.0
sg20
I0
sg21
F1.0
sg22
F0.07575757575757576
sg23
F0.9242424242424242
ss(g24
g4
(g8
S'\x9a\x99\x99\x99\x99\x99\xe9?'
p460
tp461
Rp462
g306
tp463
(dp464
g19
F0.4098360655737705
sg20
F0.07407407407407407
sg21
F0.6
sg22
F0.07692307692307693
sg23
F0.9230769230769231
ss(g57
g4
(g8
S'\x9a\x99\x99\x99\x99\x99\xc9?'
p465
tp466
Rp467
g278
tp468
(dp469
g19
F0.0
sg20
I0
sg21
F1.0
sg22
F0.07575757575757576
sg23
F0.9242424242424242
ss(g3
g4
(g8
S'\x9a\x99\x99\x99\x99\x99\xc9?'
p470
tp471
Rp472
g16
tp473
(dp474
g19
F0.6065573770491803
sg20
F0.075
sg21
F0.4
sg22
F0.07692307692307693
sg23
F0.9230769230769231
ss(g24
g4
(g8
S'433333\xe3?'
p475
tp476
Rp477
g185
tp478
(dp479
g19
F1.0
sg20
F0.07575757575757576
sg21
F0.0
sg22
I0
sg23
I0
ss(g3
g4
(g8
S'\x9a\x99\x99\x99\x99\x99\xd9?'
p480
tp481
Rp482
g255
tp483
(dp484
g19
F0.6065573770491803
sg20
F0.075
sg21
F0.4
sg22
F0.07692307692307693
sg23
F0.9230769230769231
ss(g57
g4
(g8
S'433333\xe3?'
p485
tp486
Rp487
g100
tp488
(dp489
g19
F0.7868852459016393
sg20
F0.07692307692307693
sg21
F0.2
sg22
F0.07142857142857142
sg23
F0.9285714285714286
ss(g3
g4
(g8
S'\x9a\x99\x99\x99\x99\x99\xc9?'
p490
tp491
Rp492
g255
tp493
(dp494
g19
F0.5245901639344263
sg20
F0.08571428571428572
sg21
F0.4
sg22
F0.06451612903225806
sg23
F0.9354838709677419
ss(g57
g4
(g8
S'\x9a\x99\x99\x99\x99\x99\xd9?'
p495
tp496
Rp497
g198
tp498
(dp499
g19
F1.0
sg20
F0.07575757575757576
sg21
F0.0
sg22
I0
sg23
I0
ss(g57
g4
(g8
S'433333\xe3?'
p500
tp501
Rp502
g362
tp503
(dp504
g19
F1.0
sg20
F0.07575757575757576
sg21
F0.0
sg22
I0
sg23
I0
ss(g3
g4
(g8
S'433333\xe3?'
p505
tp506
Rp507
g126
tp508
(dp509
g19
F1.0
sg20
F0.07575757575757576
sg21
F0.0
sg22
I0
sg23
I0
ss(g57
g4
(g8
S'433333\xe3?'
p510
tp511
Rp512
g198
tp513
(dp514
g19
F1.0
sg20
F0.07575757575757576
sg21
F0.0
sg22
I0
sg23
I0
ss(g3
g4
(g8
S'\x9a\x99\x99\x99\x99\x99\xe9?'
p515
tp516
Rp517
g172
tp518
(dp519
g19
F1.0
sg20
F0.07575757575757576
sg21
F0.0
sg22
I0
sg23
I0
ss(g3
g4
(g8
S'\x9a\x99\x99\x99\x99\x99\xc9?'
p520
tp521
Rp522
g206
tp523
(dp524
g19
F0.8360655737704918
sg20
F0.08928571428571429
sg21
F0.0
sg22
F0.0
sg23
F1.0
ss(g3
g4
(g8
S'\x9a\x99\x99\x99\x99\x99\xd9?'
p525
tp526
Rp527
g38
tp528
(dp529
g19
F1.0
sg20
F0.07575757575757576
sg21
F0.0
sg22
I0
sg23
I0
ss(g24
g4
(g8
S'\x9a\x99\x99\x99\x99\x99\xd9?'
p530
tp531
Rp532
g30
tp533
(dp534
g19
F0.5573770491803278
sg20
F0.08108108108108109
sg21
F0.4
sg22
F0.06896551724137931
sg23
F0.9310344827586207
ss(g3
g4
(g8
S'\x9a\x99\x99\x99\x99\x99\xe9?'
p535
tp536
Rp537
g206
tp538
(dp539
g19
F1.0
sg20
F0.07575757575757576
sg21
F0.0
sg22
I0
sg23
I0
ss(g3
g4
(g8
S'\x9a\x99\x99\x99\x99\x99\xe9?'
p540
tp541
Rp542
g54
tp543
(dp544
g19
F1.0
sg20
F0.07575757575757576
sg21
F0.0
sg22
I0
sg23
I0
ss(g57
g4
(g8
S'\x9a\x99\x99\x99\x99\x99\xe9?'
p545
tp546
Rp547
g362
tp548
(dp549
g19
F1.0
sg20
F0.07575757575757576
sg21
F0.0
sg22
I0
sg23
I0
ss(g57
g4
(g8
S'\x9a\x99\x99\x99\x99\x99\xe9?'
p550
tp551
Rp552
g198
tp553
(dp554
g19
F1.0
sg20
F0.07575757575757576
sg21
F0.0
sg22
I0
sg23
I0
ss(g57
g4
(g8
S'433333\xe3?'
p555
tp556
Rp557
g334
tp558
(dp559
g19
F1.0
sg20
F0.07575757575757576
sg21
F0.0
sg22
I0
sg23
I0
ss(g3
g4
(g8
S'\x9a\x99\x99\x99\x99\x99\xe9?'
p560
tp561
Rp562
g16
tp563
(dp564
g19
F1.0
sg20
F0.07575757575757576
sg21
F0.0
sg22
I0
sg23
I0
ss(g57
g4
(g8
S'\x9a\x99\x99\x99\x99\x99\xc9?'
p565
tp566
Rp567
g224
tp568
(dp569
g19
F0.0
sg20
I0
sg21
F1.0
sg22
F0.07575757575757576
sg23
F0.9242424242424242
sss(I0
I0
tp570
(dp571
(g3
g4
(g8
S'\x9a\x99\x99\x99\x99\x99\xd9?'
p572
tp573
Rp574
g4
(g8
S'\x00\x00\x00\x00\x00\x00\xf0?'
p575
tp576
Rp577
tp578
(dp579
g19
F0.7540983606557377
sg20
F0.08
sg21
F0.2
sg22
F0.0625
sg23
F0.9375
ss(g24
g4
(g8
S'\x9a\x99\x99\x99\x99\x99\xe9?'
p580
tp581
Rp582
g4
(g8
S'\x00\x00\x00\x00\x00\x00\x04@'
p583
tp584
Rp585
tp586
(dp587
g19
F1.0
sg20
F0.07575757575757576
sg21
F0.0
sg22
I0
sg23
I0
ss(g3
g4
(g8
S'\x9a\x99\x99\x99\x99\x99\xc9?'
p588
tp589
Rp590
g4
(g8
S'\x00\x00\x00\x00\x00\x00\x10@'
p591
tp592
Rp593
tp594
(dp595
g19
F0.9180327868852459
sg20
F0.08196721311475409
sg21
F0.0
sg22
F0.0
sg23
F1.0
ss(g24
g4
(g8
S'433333\xe3?'
p596
tp597
Rp598
g4
(g8
S'\x00\x00\x00\x00\x00\x00\xf0?'
p599
tp600
Rp601
tp602
(dp603
g19
F0.36065573770491804
sg20
F0.08333333333333333
sg21
F0.6
sg22
F0.07142857142857142
sg23
F0.9285714285714286
ss(g3
g4
(g8
S'\x9a\x99\x99\x99\x99\x99\xc9?'
p604
tp605
Rp606
g4
(g8
S'\x00\x00\x00\x00\x00\x00\x0c@'
p607
tp608
Rp609
tp610
(dp611
g19
F0.8688524590163934
sg20
F0.08620689655172414
sg21
F0.0
sg22
F0.0
sg23
F1.0
ss(g57
g4
(g8
S'433333\xe3?'
p612
tp613
Rp614
g4
(g8
S'\x00\x00\x00\x00\x00\x00\xf8?'
p615
tp616
Rp617
tp618
(dp619
g19
F0.9180327868852459
sg20
F0.08196721311475409
sg21
F0.0
sg22
F0.0
sg23
F1.0
ss(g24
g4
(g8
S'433333\xe3?'
p620
tp621
Rp622
g585
tp623
(dp624
g19
F0.9836065573770492
sg20
F0.07692307692307693
sg21
F0.0
sg22
F0.0
sg23
F1.0
ss(g24
g4
(g8
S'\x9a\x99\x99\x99\x99\x99\xe9?'
p625
tp626
Rp627
g4
(g8
S'\x00\x00\x00\x00\x00\x00\x10@'
p628
tp629
Rp630
tp631
(dp632
g19
F1.0
sg20
F0.07575757575757576
sg21
F0.0
sg22
I0
sg23
I0
ss(g3
g4
(g8
S'\x9a\x99\x99\x99\x99\x99\xc9?'
p633
tp634
Rp635
g4
(g8
S'\x00\x00\x00\x00\x00\x00\xf8?'
p636
tp637
Rp638
tp639
(dp640
g19
F0.7377049180327869
sg20
F0.08163265306122448
sg21
F0.2
sg22
F0.058823529411764705
sg23
F0.9411764705882353
ss(g24
g4
(g8
S'\x9a\x99\x99\x99\x99\x99\xd9?'
p641
tp642
Rp643
g4
(g8
S'\x00\x00\x00\x00\x00\x00\x00@'
p644
tp645
Rp646
tp647
(dp648
g19
F0.4918032786885246
sg20
F0.09090909090909091
sg21
F0.4
sg22
F0.06060606060606061
sg23
F0.9393939393939394
ss(g57
g4
(g8
S'\x9a\x99\x99\x99\x99\x99\xe9?'
p649
tp650
Rp651
g4
(g8
S'\x00\x00\x00\x00\x00\x00\xf0?'
p652
tp653
Rp654
tp655
(dp656
g19
F0.9836065573770492
sg20
F0.07692307692307693
sg21
F0.0
sg22
F0.0
sg23
F1.0
ss(g57
g4
(g8
S'\x9a\x99\x99\x99\x99\x99\xc9?'
p657
tp658
Rp659
g654
tp660
(dp661
g19
F0.0
sg20
I0
sg21
F1.0
sg22
F0.07575757575757576
sg23
F0.9242424242424242
ss(g57
g4
(g8
S'\x9a\x99\x99\x99\x99\x99\xc9?'
p662
tp663
Rp664
g4
(g8
S'\x00\x00\x00\x00\x00\x00\x0c@'
p665
tp666
Rp667
tp668
(dp669
g19
F0.8688524590163934
sg20
F0.07017543859649122
sg21
F0.2
sg22
F0.1111111111111111
sg23
F0.8888888888888888
ss(g24
g4
(g8
S'\x9a\x99\x99\x99\x99\x99\xc9?'
p670
tp671
Rp672
g630
tp673
(dp674
g19
F0.5573770491803278
sg20
F0.08108108108108109
sg21
F0.4
sg22
F0.06896551724137931
sg23
F0.9310344827586207
ss(g3
g4
(g8
S'\x9a\x99\x99\x99\x99\x99\xd9?'
p675
tp676
Rp677
g4
(g8
S'\x00\x00\x00\x00\x00\x00\x04@'
p678
tp679
Rp680
tp681
(dp682
g19
F0.9344262295081968
sg20
F0.08064516129032258
sg21
F0.0
sg22
F0.0
sg23
F1.0
ss(g24
g4
(g8
S'\x9a\x99\x99\x99\x99\x99\xc9?'
p683
tp684
Rp685
g4
(g8
S'\x00\x00\x00\x00\x00\x00\x08@'
p686
tp687
Rp688
tp689
(dp690
g19
F0.32786885245901637
sg20
F0.0
sg21
F1.0
sg22
F0.10869565217391304
sg23
F0.8913043478260869
ss(g3
g4
(g8
S'433333\xe3?'
p691
tp692
Rp693
g609
tp694
(dp695
g19
F1.0
sg20
F0.07575757575757576
sg21
F0.0
sg22
I0
sg23
I0
ss(g24
g4
(g8
S'\x9a\x99\x99\x99\x99\x99\xe9?'
p696
tp697
Rp698
g646
tp699
(dp700
g19
F1.0
sg20
F0.07575757575757576
sg21
F0.0
sg22
I0
sg23
I0
ss(g3
g4
(g8
S'433333\xe3?'
p701
tp702
Rp703
g577
tp704
(dp705
g19
F0.8524590163934426
sg20
F0.08771929824561403
sg21
F0.0
sg22
F0.0
sg23
F1.0
ss(g24
g4
(g8
S'\x9a\x99\x99\x99\x99\x99\xd9?'
p706
tp707
Rp708
g601
tp709
(dp710
g19
F0.0
sg20
I0
sg21
F1.0
sg22
F0.07575757575757576
sg23
F0.9242424242424242
ss(g24
g4
(g8
S'\x9a\x99\x99\x99\x99\x99\xd9?'
p711
tp712
Rp713
g688
tp714
(dp715
g19
F0.8688524590163934
sg20
F0.05357142857142857
sg21
F0.4
sg22
F0.2
sg23
F0.8
ss(g24
g4
(g8
S'\x9a\x99\x99\x99\x99\x99\xc9?'
p716
tp717
Rp718
g585
tp719
(dp720
g19
F0.0
sg20
I0
sg21
F1.0
sg22
F0.07575757575757576
sg23
F0.9242424242424242
ss(g3
g4
(g8
S'433333\xe3?'
p721
tp722
Rp723
g4
(g8
S'\x00\x00\x00\x00\x00\x00\x00@'
p724
tp725
Rp726
tp727
(dp728
g19
F1.0
sg20
F0.07575757575757576
sg21
F0.0
sg22
I0
sg23
I0
ss(g3
g4
(g8
S'\x9a\x99\x99\x99\x99\x99\xe9?'
p729
tp730
Rp731
g593
tp732
(dp733
g19
F1.0
sg20
F0.07575757575757576
sg21
F0.0
sg22
I0
sg23
I0
ss(g24
g4
(g8
S'\x9a\x99\x99\x99\x99\x99\xe9?'
p734
tp735
Rp736
g4
(g8
S'\x00\x00\x00\x00\x00\x00\x0c@'
p737
tp738
Rp739
tp740
(dp741
g19
F1.0
sg20
F0.07575757575757576
sg21
F0.0
sg22
I0
sg23
I0
ss(g3
g4
(g8
S'\x9a\x99\x99\x99\x99\x99\xd9?'
p742
tp743
Rp744
g726
tp745
(dp746
g19
F0.8688524590163934
sg20
F0.08620689655172414
sg21
F0.0
sg22
F0.0
sg23
F1.0
ss(g57
g4
(g8
S'\x9a\x99\x99\x99\x99\x99\xc9?'
p747
tp748
Rp749
g4
(g8
S'\x00\x00\x00\x00\x00\x00\x08@'
p750
tp751
Rp752
tp753
(dp754
g19
F0.8360655737704918
sg20
F0.05555555555555555
sg21
F0.4
sg22
F0.16666666666666666
sg23
F0.8333333333333334
ss(g3
g4
(g8
S'433333\xe3?'
p755
tp756
Rp757
g4
(g8
S'\x00\x00\x00\x00\x00\x00\x08@'
p758
tp759
Rp760
tp761
(dp762
g19
F1.0
sg20
F0.07575757575757576
sg21
F0.0
sg22
I0
sg23
I0
ss(g57
g4
(g8
S'\x9a\x99\x99\x99\x99\x99\xd9?'
p763
tp764
Rp765
g617
tp766
(dp767
g19
F0.14754098360655737
sg20
F0.0
sg21
F1.0
sg22
F0.08771929824561403
sg23
F0.9122807017543859
ss(g3
g4
(g8
S'\x9a\x99\x99\x99\x99\x99\xe9?'
p768
tp769
Rp770
g680
tp771
(dp772
g19
F1.0
sg20
F0.07575757575757576
sg21
F0.0
sg22
I0
sg23
I0
ss(g57
g4
(g8
S'\x9a\x99\x99\x99\x99\x99\xe9?'
p773
tp774
Rp775
g4
(g8
S'\x00\x00\x00\x00\x00\x00\x00@'
p776
tp777
Rp778
tp779
(dp780
g19
F1.0
sg20
F0.07575757575757576
sg21
F0.0
sg22
I0
sg23
I0
ss(g3
g4
(g8
S'433333\xe3?'
p781
tp782
Rp783
g593
tp784
(dp785
g19
F1.0
sg20
F0.07575757575757576
sg21
F0.0
sg22
I0
sg23
I0
ss(g24
g4
(g8
S'\x9a\x99\x99\x99\x99\x99\xc9?'
p786
tp787
Rp788
g739
tp789
(dp790
g19
F0.47540983606557374
sg20
F0.06451612903225806
sg21
F0.6
sg22
F0.08571428571428572
sg23
F0.9142857142857143
ss(g24
g4
(g8
S'\x9a\x99\x99\x99\x99\x99\xd9?'
p791
tp792
Rp793
g4
(g8
S'\x00\x00\x00\x00\x00\x00\xf8?'
p794
tp795
Rp796
tp797
(dp798
g19
F0.01639344262295082
sg20
F0.0
sg21
F1.0
sg22
F0.07692307692307693
sg23
F0.9230769230769231
ss(g57
g4
(g8
S'\x9a\x99\x99\x99\x99\x99\xd9?'
p799
tp800
Rp801
g654
tp802
(dp803
g19
F0.0
sg20
I0
sg21
F1.0
sg22
F0.07575757575757576
sg23
F0.9242424242424242
ss(g3
g4
(g8
S'433333\xe3?'
p804
tp805
Rp806
g4
(g8
S'\x00\x00\x00\x00\x00\x00\xe0?'
p807
tp808
Rp809
tp810
(dp811
g19
F0.7049180327868853
sg20
F0.06521739130434782
sg21
F0.4
sg22
F0.1
sg23
F0.9
ss(g24
g4
(g8
S'433333\xe3?'
p812
tp813
Rp814
g796
tp815
(dp816
g19
F0.7377049180327869
sg20
F0.0625
sg21
F0.4
sg22
F0.1111111111111111
sg23
F0.8888888888888888
ss(g3
g4
(g8
S'433333\xe3?'
p817
tp818
Rp819
g638
tp820
(dp821
g19
F0.9344262295081968
sg20
F0.08064516129032258
sg21
F0.0
sg22
F0.0
sg23
F1.0
ss(g24
g4
(g8
S'\x9a\x99\x99\x99\x99\x99\xd9?'
p822
tp823
Rp824
g630
tp825
(dp826
g19
F0.9672131147540983
sg20
F0.078125
sg21
F0.0
sg22
F0.0
sg23
F1.0
ss(g57
g4
(g8
S'\x9a\x99\x99\x99\x99\x99\xe9?'
p827
tp828
Rp829
g4
(g8
S'\x00\x00\x00\x00\x00\x00\xe0?'
p830
tp831
Rp832
tp833
(dp834
g19
F0.8688524590163934
sg20
F0.08620689655172414
sg21
F0.0
sg22
F0.0
sg23
F1.0
ss(g24
g4
(g8
S'\x9a\x99\x99\x99\x99\x99\xc9?'
p835
tp836
Rp837
g796
tp838
(dp839
g19
F0.0
sg20
I0
sg21
F1.0
sg22
F0.07575757575757576
sg23
F0.9242424242424242
ss(g57
g4
(g8
S'433333\xe3?'
p840
tp841
Rp842
g832
tp843
(dp844
g19
F0.0
sg20
I0
sg21
F1.0
sg22
F0.07575757575757576
sg23
F0.9242424242424242
ss(g57
g4
(g8
S'433333\xe3?'
p845
tp846
Rp847
g778
tp848
(dp849
g19
F0.9836065573770492
sg20
F0.07692307692307693
sg21
F0.0
sg22
F0.0
sg23
F1.0
ss(g24
g4
(g8
S'\x9a\x99\x99\x99\x99\x99\xc9?'
p850
tp851
Rp852
g646
tp853
(dp854
g19
F0.0
sg20
I0
sg21
F1.0
sg22
F0.07575757575757576
sg23
F0.9242424242424242
ss(g24
g4
(g8
S'433333\xe3?'
p855
tp856
Rp857
g4
(g8
S'\x00\x00\x00\x00\x00\x00\xe0?'
p858
tp859
Rp860
tp861
(dp862
g19
F0.0
sg20
I0
sg21
F1.0
sg22
F0.07575757575757576
sg23
F0.9242424242424242
ss(g3
g4
(g8
S'\x9a\x99\x99\x99\x99\x99\xe9?'
p863
tp864
Rp865
g638
tp866
(dp867
g19
F1.0
sg20
F0.07575757575757576
sg21
F0.0
sg22
I0
sg23
I0
ss(g57
g4
(g8
S'\x9a\x99\x99\x99\x99\x99\xe9?'
p868
tp869
Rp870
g617
tp871
(dp872
g19
F1.0
sg20
F0.07575757575757576
sg21
F0.0
sg22
I0
sg23
I0
ss(g3
g4
(g8
S'\x9a\x99\x99\x99\x99\x99\xd9?'
p873
tp874
Rp875
g760
tp876
(dp877
g19
F0.9836065573770492
sg20
F0.07692307692307693
sg21
F0.0
sg22
F0.0
sg23
F1.0
ss(g24
g4
(g8
S'433333\xe3?'
p878
tp879
Rp880
g688
tp881
(dp882
g19
F1.0
sg20
F0.07575757575757576
sg21
F0.0
sg22
I0
sg23
I0
ss(g57
g4
(g8
S'\x9a\x99\x99\x99\x99\x99\xe9?'
p883
tp884
Rp885
g4
(g8
S'\x00\x00\x00\x00\x00\x00\x10@'
p886
tp887
Rp888
tp889
(dp890
g19
F1.0
sg20
F0.07575757575757576
sg21
F0.0
sg22
I0
sg23
I0
ss(g3
g4
(g8
S'\x9a\x99\x99\x99\x99\x99\xd9?'
p891
tp892
Rp893
g638
tp894
(dp895
g19
F0.8360655737704918
sg20
F0.07272727272727272
sg21
F0.2
sg22
F0.09090909090909091
sg23
F0.9090909090909091
ss(g24
g4
(g8
S'433333\xe3?'
p896
tp897
Rp898
g646
tp899
(dp900
g19
F0.9508196721311475
sg20
F0.07936507936507936
sg21
F0.0
sg22
F0.0
sg23
F1.0
ss(g24
g4
(g8
S'\x9a\x99\x99\x99\x99\x99\xd9?'
p901
tp902
Rp903
g860
tp904
(dp905
g19
F0.0
sg20
I0
sg21
F1.0
sg22
F0.07575757575757576
sg23
F0.9242424242424242
ss(g24
g4
(g8
S'\x9a\x99\x99\x99\x99\x99\xc9?'
p906
tp907
Rp908
g860
tp909
(dp910
g19
F0.0
sg20
I0
sg21
F1.0
sg22
F0.07575757575757576
sg23
F0.9242424242424242
ss(g57
g4
(g8
S'\x9a\x99\x99\x99\x99\x99\xc9?'
p911
tp912
Rp913
g4
(g8
S'\x00\x00\x00\x00\x00\x00\x04@'
p914
tp915
Rp916
tp917
(dp918
g19
F0.06557377049180328
sg20
F0.0
sg21
F1.0
sg22
F0.08064516129032258
sg23
F0.9193548387096774
ss(g24
g4
(g8
S'\x9a\x99\x99\x99\x99\x99\xe9?'
p919
tp920
Rp921
g688
tp922
(dp923
g19
F1.0
sg20
F0.07575757575757576
sg21
F0.0
sg22
I0
sg23
I0
ss(g24
g4
(g8
S'433333\xe3?'
p924
tp925
Rp926
g630
tp927
(dp928
g19
F1.0
sg20
F0.07575757575757576
sg21
F0.0
sg22
I0
sg23
I0
ss(g57
g4
(g8
S'\x9a\x99\x99\x99\x99\x99\xd9?'
p929
tp930
Rp931
g778
tp932
(dp933
g19
F0.8688524590163934
sg20
F0.08620689655172414
sg21
F0.0
sg22
F0.0
sg23
F1.0
ss(g3
g4
(g8
S'\x9a\x99\x99\x99\x99\x99\xe9?'
p934
tp935
Rp936
g809
tp937
(dp938
g19
F0.8688524590163934
sg20
F0.08620689655172414
sg21
F0.0
sg22
F0.0
sg23
F1.0
ss(g24
g4
(g8
S'\x9a\x99\x99\x99\x99\x99\xe9?'
p939
tp940
Rp941
g601
tp942
(dp943
g19
F0.9836065573770492
sg20
F0.07692307692307693
sg21
F0.0
sg22
F0.0
sg23
F1.0
ss(g3
g4
(g8
S'\x9a\x99\x99\x99\x99\x99\xd9?'
p944
tp945
Rp946
g609
tp947
(dp948
g19
F1.0
sg20
F0.07575757575757576
sg21
F0.0
sg22
I0
sg23
I0
ss(g3
g4
(g8
S'\x9a\x99\x99\x99\x99\x99\xc9?'
p949
tp950
Rp951
g680
tp952
(dp953
g19
F0.819672131147541
sg20
F0.07407407407407407
sg21
F0.2
sg22
F0.08333333333333333
sg23
F0.9166666666666666
ss(g57
g4
(g8
S'\x9a\x99\x99\x99\x99\x99\xd9?'
p954
tp955
Rp956
g888
tp957
(dp958
g19
F0.9836065573770492
sg20
F0.07692307692307693
sg21
F0.0
sg22
F0.0
sg23
F1.0
ss(g24
g4
(g8
S'\x9a\x99\x99\x99\x99\x99\xe9?'
p959
tp960
Rp961
g796
tp962
(dp963
g19
F1.0
sg20
F0.07575757575757576
sg21
F0.0
sg22
I0
sg23
I0
ss(g57
g4
(g8
S'\x9a\x99\x99\x99\x99\x99\xd9?'
p964
tp965
Rp966
g916
tp967
(dp968
g19
F0.9180327868852459
sg20
F0.08196721311475409
sg21
F0.0
sg22
F0.0
sg23
F1.0
ss(g57
g4
(g8
S'\x9a\x99\x99\x99\x99\x99\xe9?'
p969
tp970
Rp971
g667
tp972
(dp973
g19
F1.0
sg20
F0.07575757575757576
sg21
F0.0
sg22
I0
sg23
I0
ss(g57
g4
(g8
S'\x9a\x99\x99\x99\x99\x99\xc9?'
p974
tp975
Rp976
g888
tp977
(dp978
g19
F0.8688524590163934
sg20
F0.08620689655172414
sg21
F0.0
sg22
F0.0
sg23
F1.0
ss(g3
g4
(g8
S'\x9a\x99\x99\x99\x99\x99\xc9?'
p979
tp980
Rp981
g726
tp982
(dp983
g19
F0.8032786885245902
sg20
F0.07547169811320754
sg21
F0.2
sg22
F0.07692307692307693
sg23
F0.9230769230769231
ss(g24
g4
(g8
S'\x9a\x99\x99\x99\x99\x99\xd9?'
p984
tp985
Rp986
g739
tp987
(dp988
g19
F0.9344262295081968
sg20
F0.06557377049180328
sg21
F0.2
sg22
F0.2
sg23
F0.8
ss(g57
g4
(g8
S'433333\xe3?'
p989
tp990
Rp991
g667
tp992
(dp993
g19
F1.0
sg20
F0.07575757575757576
sg21
F0.0
sg22
I0
sg23
I0
ss(g57
g4
(g8
S'\x9a\x99\x99\x99\x99\x99\xd9?'
p994
tp995
Rp996
g667
tp997
(dp998
g19
F0.9836065573770492
sg20
F0.07692307692307693
sg21
F0.0
sg22
F0.0
sg23
F1.0
ss(g24
g4
(g8
S'\x9a\x99\x99\x99\x99\x99\xc9?'
p999
tp1000
Rp1001
g601
tp1002
(dp1003
g19
F0.0
sg20
I0
sg21
F1.0
sg22
F0.07575757575757576
sg23
F0.9242424242424242
ss(g57
g4
(g8
S'\x9a\x99\x99\x99\x99\x99\xc9?'
p1004
tp1005
Rp1006
g617
tp1007
(dp1008
g19
F0.0
sg20
I0
sg21
F1.0
sg22
F0.07575757575757576
sg23
F0.9242424242424242
ss(g57
g4
(g8
S'\x9a\x99\x99\x99\x99\x99\xd9?'
p1009
tp1010
Rp1011
g832
tp1012
(dp1013
g19
F0.0
sg20
I0
sg21
F1.0
sg22
F0.07575757575757576
sg23
F0.9242424242424242
ss(g24
g4
(g8
S'\x9a\x99\x99\x99\x99\x99\xe9?'
p1014
tp1015
Rp1016
g860
tp1017
(dp1018
g19
F0.4918032786885246
sg20
F0.09090909090909091
sg21
F0.4
sg22
F0.06060606060606061
sg23
F0.9393939393939394
ss(g57
g4
(g8
S'\x9a\x99\x99\x99\x99\x99\xc9?'
p1019
tp1020
Rp1021
g832
tp1022
(dp1023
g19
F0.0
sg20
I0
sg21
F1.0
sg22
F0.07575757575757576
sg23
F0.9242424242424242
ss(g3
g4
(g8
S'\x9a\x99\x99\x99\x99\x99\xc9?'
p1024
tp1025
Rp1026
g577
tp1027
(dp1028
g19
F0.6065573770491803
sg20
F0.05128205128205128
sg21
F0.6
sg22
F0.1111111111111111
sg23
F0.8888888888888888
ss(g24
g4
(g8
S'433333\xe3?'
p1029
tp1030
Rp1031
g739
tp1032
(dp1033
g19
F1.0
sg20
F0.07575757575757576
sg21
F0.0
sg22
I0
sg23
I0
ss(g3
g4
(g8
S'\x9a\x99\x99\x99\x99\x99\xd9?'
p1034
tp1035
Rp1036
g809
tp1037
(dp1038
g19
F0.5901639344262295
sg20
F0.07692307692307693
sg21
F0.4
sg22
F0.07407407407407407
sg23
F0.9259259259259259
ss(g57
g4
(g8
S'433333\xe3?'
p1039
tp1040
Rp1041
g654
tp1042
(dp1043
g19
F0.8688524590163934
sg20
F0.07017543859649122
sg21
F0.2
sg22
F0.1111111111111111
sg23
F0.8888888888888888
ss(g3
g4
(g8
S'\x9a\x99\x99\x99\x99\x99\xc9?'
p1044
tp1045
Rp1046
g809
tp1047
(dp1048
g19
F0.5245901639344263
sg20
F0.030303030303030304
sg21
F0.8
sg22
F0.12121212121212122
sg23
F0.8787878787878788
ss(g57
g4
(g8
S'\x9a\x99\x99\x99\x99\x99\xd9?'
p1049
tp1050
Rp1051
g752
tp1052
(dp1053
g19
F0.9672131147540983
sg20
F0.078125
sg21
F0.0
sg22
F0.0
sg23
F1.0
ss(g57
g4
(g8
S'433333\xe3?'
p1054
tp1055
Rp1056
g916
tp1057
(dp1058
g19
F0.9836065573770492
sg20
F0.07692307692307693
sg21
F0.0
sg22
F0.0
sg23
F1.0
ss(g3
g4
(g8
S'433333\xe3?'
p1059
tp1060
Rp1061
g680
tp1062
(dp1063
g19
F1.0
sg20
F0.07575757575757576
sg21
F0.0
sg22
I0
sg23
I0
ss(g57
g4
(g8
S'433333\xe3?'
p1064
tp1065
Rp1066
g752
tp1067
(dp1068
g19
F1.0
sg20
F0.07575757575757576
sg21
F0.0
sg22
I0
sg23
I0
ss(g3
g4
(g8
S'\x9a\x99\x99\x99\x99\x99\xe9?'
p1069
tp1070
Rp1071
g726
tp1072
(dp1073
g19
F1.0
sg20
F0.07575757575757576
sg21
F0.0
sg22
I0
sg23
I0
ss(g3
g4
(g8
S'\x9a\x99\x99\x99\x99\x99\xc9?'
p1074
tp1075
Rp1076
g760
tp1077
(dp1078
g19
F0.8360655737704918
sg20
F0.07272727272727272
sg21
F0.2
sg22
F0.09090909090909091
sg23
F0.9090909090909091
ss(g3
g4
(g8
S'\x9a\x99\x99\x99\x99\x99\xd9?'
p1079
tp1080
Rp1081
g593
tp1082
(dp1083
g19
F1.0
sg20
F0.07575757575757576
sg21
F0.0
sg22
I0
sg23
I0
ss(g24
g4
(g8
S'\x9a\x99\x99\x99\x99\x99\xd9?'
p1084
tp1085
Rp1086
g585
tp1087
(dp1088
g19
F0.6885245901639344
sg20
F0.06666666666666667
sg21
F0.4
sg22
F0.09523809523809523
sg23
F0.9047619047619048
ss(g3
g4
(g8
S'\x9a\x99\x99\x99\x99\x99\xe9?'
p1089
tp1090
Rp1091
g760
tp1092
(dp1093
g19
F1.0
sg20
F0.07575757575757576
sg21
F0.0
sg22
I0
sg23
I0
ss(g3
g4
(g8
S'\x9a\x99\x99\x99\x99\x99\xe9?'
p1094
tp1095
Rp1096
g609
tp1097
(dp1098
g19
F1.0
sg20
F0.07575757575757576
sg21
F0.0
sg22
I0
sg23
I0
ss(g57
g4
(g8
S'\x9a\x99\x99\x99\x99\x99\xe9?'
p1099
tp1100
Rp1101
g916
tp1102
(dp1103
g19
F1.0
sg20
F0.07575757575757576
sg21
F0.0
sg22
I0
sg23
I0
ss(g57
g4
(g8
S'\x9a\x99\x99\x99\x99\x99\xe9?'
p1104
tp1105
Rp1106
g752
tp1107
(dp1108
g19
F1.0
sg20
F0.07575757575757576
sg21
F0.0
sg22
I0
sg23
I0
ss(g57
g4
(g8
S'433333\xe3?'
p1109
tp1110
Rp1111
g888
tp1112
(dp1113
g19
F1.0
sg20
F0.07575757575757576
sg21
F0.0
sg22
I0
sg23
I0
ss(g3
g4
(g8
S'\x9a\x99\x99\x99\x99\x99\xe9?'
p1114
tp1115
Rp1116
g577
tp1117
(dp1118
g19
F1.0
sg20
F0.07575757575757576
sg21
F0.0
sg22
I0
sg23
I0
ss(g57
g4
(g8
S'\x9a\x99\x99\x99\x99\x99\xc9?'
p1119
tp1120
Rp1121
g778
tp1122
(dp1123
g19
F0.01639344262295082
sg20
F0.0
sg21
F1.0
sg22
F0.07692307692307693
sg23
F0.9230769230769231
sss.