(dp0
(I2
I5000
tp1
(dp2
S'control charts'
p3
(dp4
S'TNR'
p5
F0.19672131147540983
sS'FNR'
p6
F0.0
sS'TPR'
p7
F1.0
sS'FPR'
p8
F0.9074074074074074
ssS'3-tier control charts'
p9
(dp10
g5
F0.01639344262295082
sg6
F0.0
sg7
F1.0
sg8
F0.9230769230769231
sss(I1
I30000
tp11
(dp12
g3
(dp13
g5
F0.39344262295081966
sg6
F0.04
sg7
F0.8
sg8
F0.9024390243902439
ssg9
(dp14
g5
F0.01639344262295082
sg6
F0.0
sg7
F1.0
sg8
F0.9230769230769231
sss(I0
I35000
tp15
(dp16
g3
(dp17
g5
F0.3442622950819672
sg6
F0.0
sg7
F1.0
sg8
F0.8888888888888888
ssg9
(dp18
g5
F0.01639344262295082
sg6
F0.0
sg7
F1.0
sg8
F0.9230769230769231
sss(I0
I10000
tp19
(dp20
g3
(dp21
g5
F0.26229508196721313
sg6
F0.058823529411764705
sg7
F0.8
sg8
F0.9183673469387755
ssg9
(dp22
g5
F0.01639344262295082
sg6
F0.0
sg7
F1.0
sg8
F0.9230769230769231
sss(I2
I30000
tp23
(dp24
g3
(dp25
g5
F0.29508196721311475
sg6
F0.0
sg7
F1.0
sg8
F0.8958333333333334
ssg9
(dp26
g5
F0.01639344262295082
sg6
F0.0
sg7
F1.0
sg8
F0.9230769230769231
sss(I1
I35000
tp27
(dp28
g3
(dp29
g5
F0.36065573770491804
sg6
F0.0
sg7
F1.0
sg8
F0.8863636363636364
ssg9
(dp30
g5
F0.01639344262295082
sg6
F0.0
sg7
F1.0
sg8
F0.9230769230769231
sss(I0
I20000
tp31
(dp32
g3
(dp33
g5
F0.2459016393442623
sg6
F0.0625
sg7
F0.8
sg8
F0.92
ssg9
(dp34
g5
F0.01639344262295082
sg6
F0.5
sg7
F0.8
sg8
F0.9375
sss(I1
I10000
tp35
(dp36
g3
(dp37
g5
F0.29508196721311475
sg6
F0.0
sg7
F1.0
sg8
F0.8958333333333334
ssg9
(dp38
g5
F0.01639344262295082
sg6
F0.0
sg7
F1.0
sg8
F0.9230769230769231
sss(I0
I15000
tp39
(dp40
g3
(dp41
g5
F0.47540983606557374
sg6
F0.09375
sg7
F0.4
sg8
F0.9411764705882353
ssg9
(dp42
g5
F0.04918032786885246
sg6
F0.0
sg7
F1.0
sg8
F0.9206349206349206
sss(I2
I35000
tp43
(dp44
g3
(dp45
g5
F0.5245901639344263
sg6
F0.0
sg7
F1.0
sg8
F0.8529411764705882
ssg9
(dp46
g5
F0.01639344262295082
sg6
F0.0
sg7
F1.0
sg8
F0.9230769230769231
sss(I1
I20000
tp47
(dp48
g3
(dp49
g5
F0.4098360655737705
sg6
F0.0
sg7
F1.0
sg8
F0.8780487804878049
ssg9
(dp50
g5
F0.06557377049180328
sg6
F0.0
sg7
F1.0
sg8
F0.9193548387096774
sss(I0
I25000
tp51
(dp52
g3
(dp53
g5
F0.3114754098360656
sg6
F0.05
sg7
F0.8
sg8
F0.9130434782608695
ssg9
(dp54
g5
F0.03278688524590164
sg6
F0.0
sg7
F1.0
sg8
F0.921875
sss(I2
I10000
tp55
(dp56
g3
(dp57
g5
F0.2459016393442623
sg6
F0.0625
sg7
F0.8
sg8
F0.92
ssg9
(dp58
g5
F0.03278688524590164
sg6
F0.3333333333333333
sg7
F0.8
sg8
F0.9365079365079365
sss(I1
I15000
tp59
(dp60
g3
(dp61
g5
F0.26229508196721313
sg6
F0.058823529411764705
sg7
F0.8
sg8
F0.9183673469387755
ssg9
(dp62
g5
F0.03278688524590164
sg6
F0.0
sg7
F1.0
sg8
F0.921875
sss(I0
I0
tp63
(dp64
g3
(dp65
g5
F0.3442622950819672
sg6
F0.0
sg7
F1.0
sg8
F0.8888888888888888
ssg9
(dp66
g5
F0.01639344262295082
sg6
F0.0
sg7
F1.0
sg8
F0.9230769230769231
sss(I2
I20000
tp67
(dp68
g3
(dp69
g5
F0.36065573770491804
sg6
F0.08333333333333333
sg7
F0.6
sg8
F0.9285714285714286
ssg9
(dp70
g5
F0.04918032786885246
sg6
F0.25
sg7
F0.8
sg8
F0.9354838709677419
sss(I1
I25000
tp71
(dp72
g3
(dp73
g5
F0.3114754098360656
sg6
F0.0
sg7
F1.0
sg8
F0.8936170212765957
ssg9
(dp74
g5
F0.01639344262295082
sg6
F0.0
sg7
F1.0
sg8
F0.9230769230769231
sss(I2
I15000
tp75
(dp76
g3
(dp77
g5
F0.3442622950819672
sg6
F0.125
sg7
F0.4
sg8
F0.9523809523809523
ssg9
(dp78
g5
F0.01639344262295082
sg6
F0.0
sg7
F1.0
sg8
F0.9230769230769231
sss(I1
I0
tp79
(dp80
g3
(dp81
g5
F0.19672131147540983
sg6
F0.07692307692307693
sg7
F0.8
sg8
F0.9245283018867925
ssg9
(dp82
g5
F0.01639344262295082
sg6
F0.0
sg7
F1.0
sg8
F0.9230769230769231
sss(I0
I5000
tp83
(dp84
g3
(dp85
g5
F0.16393442622950818
sg6
F0.3333333333333333
sg7
F0.0
sg8
F1.0
ssg9
(dp86
g5
F-0.06557377049180328
sg6
F5.0
sg7
F0.0
sg8
F1.0
sss(I2
I25000
tp87
(dp88
g3
(dp89
g5
F0.26229508196721313
sg6
F0.0
sg7
F1.0
sg8
F0.9
ssg9
(dp90
g5
F0.01639344262295082
sg6
F0.0
sg7
F1.0
sg8
F0.9230769230769231
sss(I2
I0
tp91
(dp92
g3
(dp93
g5
F0.2786885245901639
sg6
F0.05555555555555555
sg7
F0.8
sg8
F0.9166666666666666
ssg9
(dp94
g5
F0.01639344262295082
sg6
F0.0
sg7
F1.0
sg8
F0.9230769230769231
sss(I1
I5000
tp95
(dp96
g3
(dp97
g5
F0.3114754098360656
sg6
F0.05
sg7
F0.8
sg8
F0.9130434782608695
ssg9
(dp98
g5
F0.01639344262295082
sg6
F0.0
sg7
F1.0
sg8
F0.9230769230769231
sss(I0
I30000
tp99
(dp100
g3
(dp101
g5
F0.21311475409836064
sg6
F0.0
sg7
F1.0
sg8
F0.9056603773584906
ssg9
(dp102
g5
F0.01639344262295082
sg6
F0.0
sg7
F1.0
sg8
F0.9230769230769231
sss.